target datalayout = "e-m:e-p270:32:32-p271:32:32-p272:64:64-i64:64-i128:128-f80:128-n8:16:32:64-S128"
target triple = "x86_64-pc-linux-gnu"

@_ZTIN5faiss5IndexE = external constant ptr
@_ZTIN5faiss9IndexFlatE = external constant ptr
@_ZTIN5faiss19MultiIndexQuantizerE = external constant ptr
@_ZTIN5faiss23ResidualCoarseQuantizerE = external constant ptr
@_ZTIN5faiss13IndexHNSWFlatE = linkonce_odr constant { ptr, ptr, ptr } { ptr getelementptr inbounds (ptr, ptr @_ZTVN10__cxxabiv120__si_class_type_infoE, i64 2), ptr @_ZTSN5faiss13IndexHNSWFlatE, ptr @_ZTIN5faiss9IndexHNSWE }, comdat, align 8

; Function Attrs: mustprogress nounwind uwtable
define internal noundef signext i8 @_ZN5faiss12_GLOBAL__N_116get_trains_aloneEPKNS_5IndexE(ptr noundef %0) #5 {
  %2 = alloca i8, align 1
  %3 = alloca ptr, align 8
  store ptr %0, ptr %3, align 8
  %4 = load ptr, ptr %3, align 8
  %5 = icmp eq ptr %4, null
  br i1 %5, label %8, label %6

6:                                                ; preds = %1
  %7 = call ptr @__dynamic_cast(ptr %4, ptr @_ZTIN5faiss5IndexE, ptr @_ZTIN5faiss9IndexFlatE, i64 0) #3
  br label %9

8:                                                ; preds = %1
  br label %9

9:                                                ; preds = %8, %6
  %10 = phi ptr [ %7, %6 ], [ null, %8 ]
  %11 = icmp ne ptr %10, null
  br i1 %11, label %12, label %13

12:                                               ; preds = %9
  store i8 0, ptr %2, align 1
  br label %43

13:                                               ; preds = %9
  %14 = load ptr, ptr %3, align 8
  %15 = icmp eq ptr %14, null
  br i1 %15, label %18, label %16

16:                                               ; preds = %13
  %17 = call ptr @__dynamic_cast(ptr %14, ptr @_ZTIN5faiss5IndexE, ptr @_ZTIN5faiss19MultiIndexQuantizerE, i64 0) #3
  br label %19

18:                                               ; preds = %13
  br label %19

19:                                               ; preds = %18, %16
  %20 = phi ptr [ %17, %16 ], [ null, %18 ]
  %21 = icmp ne ptr %20, null
  br i1 %21, label %31, label %22

22:                                               ; preds = %19
  %23 = load ptr, ptr %3, align 8
  %24 = icmp eq ptr %23, null
  br i1 %24, label %27, label %25

25:                                               ; preds = %22
  %26 = call ptr @__dynamic_cast(ptr %23, ptr @_ZTIN5faiss5IndexE, ptr @_ZTIN5faiss23ResidualCoarseQuantizerE, i64 0) #3
  br label %28

27:                                               ; preds = %22
  br label %28

28:                                               ; preds = %27, %25
  %29 = phi ptr [ %26, %25 ], [ null, %27 ]
  %30 = icmp ne ptr %29, null
  br i1 %30, label %31, label %32

31:                                               ; preds = %28, %19
  store i8 1, ptr %2, align 1
  br label %43

32:                                               ; preds = %28
  %33 = load ptr, ptr %3, align 8
  %34 = icmp eq ptr %33, null
  br i1 %34, label %37, label %35

35:                                               ; preds = %32
  %36 = call ptr @__dynamic_cast(ptr %33, ptr @_ZTIN5faiss5IndexE, ptr @_ZTIN5faiss13IndexHNSWFlatE, i64 0) #3
  br label %38

37:                                               ; preds = %32
  br label %38

38:                                               ; preds = %37, %35
  %39 = phi ptr [ %36, %35 ], [ null, %37 ]
  %40 = icmp ne ptr %39, null
  br i1 %40, label %41, label %42

41:                                               ; preds = %38
  store i8 2, ptr %2, align 1
  br label %43

42:                                               ; preds = %38
  store i8 2, ptr %2, align 1
  br label %43

43:                                               ; preds = %42, %41, %31, %12
  %44 = load i8, ptr %2, align 1
  ret i8 %44
}