; Function Attrs: mustprogress nofree nounwind willreturn memory(read) uwtable
define internal fastcc noundef signext i8 @_ZN5faiss12_GLOBAL__N_116get_trains_aloneEPKNS_5IndexE(ptr noundef readonly %0) unnamed_addr #14 {
  %2 = icmp eq ptr %0, null
  br i1 %2, label %.critedge12, label %3

3:                                                ; preds = %1
  %4 = tail call ptr @__dynamic_cast(ptr nonnull %0, ptr nonnull @_ZTIN5faiss5IndexE, ptr nonnull @_ZTIN5faiss9IndexFlatE, i64 0) #27
  %.not19 = icmp eq ptr %4, null
  br i1 %.not19, label %.critedge8, label %.critedge12

.critedge8:                                       ; preds = %3
  %5 = tail call ptr @__dynamic_cast(ptr nonnull %0, ptr nonnull @_ZTIN5faiss5IndexE, ptr nonnull @_ZTIN5faiss19MultiIndexQuantizerE, i64 0) #27
  %.not = icmp eq ptr %5, null
  br i1 %.not, label %6, label %.critedge12

6:                                                ; preds = %.critedge8
  %7 = tail call ptr @__dynamic_cast(ptr nonnull %0, ptr nonnull @_ZTIN5faiss5IndexE, ptr nonnull @_ZTIN5faiss23ResidualCoarseQuantizerE, i64 0) #27
  %.not20 = icmp eq ptr %7, null
  %.mux15 = select i1 %.not20, i8 2, i8 1
  br label %.critedge12

.critedge12:                                      ; preds = %6, %3, %1, %.critedge8
  %.0 = phi i8 [ 0, %3 ], [ 1, %.critedge8 ], [ 2, %1 ], [ %.mux15, %6 ]
  ret i8 %.0
}